target datalayout = "e-m:e-p270:32:32-p271:32:32-p272:64:64-i64:64-i128:128-f80:128-n8:16:32:64-S128"
target triple = "x86_64-pc-linux-gnu"

%struct.SDL_HIDAPI_DeviceDriver = type { ptr, i8, ptr, ptr, ptr, ptr, ptr, ptr, ptr, ptr, ptr, ptr, ptr, ptr, ptr, ptr, ptr, ptr, ptr }

@SDL_HIDAPI_change_count = internal global i32 0, align 4
@initialized = internal global i8 0, align 1
@.str.12 = private unnamed_addr constant [27 x i8] c"Couldn't initialize hidapi\00", align 1
@.str.13 = private unnamed_addr constant [37 x i8] c"SDL_JOYSTICK_HIDAPI_COMBINE_JOY_CONS\00", align 1
@.str.14 = private unnamed_addr constant [20 x i8] c"SDL_JOYSTICK_HIDAPI\00", align 1

; Function Attrs: nounwind uwtable
define internal zeroext i1 @HIDAPI_JoystickInit() #0 {
  %1 = alloca i1, align 1
  %2 = alloca i32, align 4
  %3 = alloca i32, align 4
  %4 = alloca ptr, align 8
  call void @llvm.lifetime.start.p0(i64 4, ptr %2) #7
  %5 = load i8, ptr @initialized, align 1, !range !6, !noundef !7
  %6 = trunc i8 %5 to i1
  br i1 %6, label %7, label %8

7:                                                ; preds = %0
  store i1 true, ptr %1, align 1
  store i32 1, ptr %3, align 4
  br label %34

8:                                                ; preds = %0
  %9 = call i32 @SDL_hid_init_REAL()
  %10 = icmp slt i32 %9, 0
  br i1 %10, label %11, label %13

11:                                               ; preds = %8
  %12 = call zeroext i1 (ptr, ...) @SDL_SetError_REAL(ptr noundef @.str.12)
  store i1 %12, ptr %1, align 1
  store i32 1, ptr %3, align 4
  br label %34

13:                                               ; preds = %8
  store i32 0, ptr %2, align 4
  br label %14

14:                                               ; preds = %27, %13
  %15 = load i32, ptr %2, align 4
  %16 = sext i32 %15 to i64
  %17 = icmp ult i64 %16, 22
  br i1 %17, label %18, label %30

18:                                               ; preds = %14
  call void @llvm.lifetime.start.p0(i64 8, ptr %4) #7
  %19 = load i32, ptr %2, align 4
  %20 = sext i32 %19 to i64
  %21 = getelementptr inbounds [22 x ptr], ptr @SDL_HIDAPI_drivers, i64 0, i64 %20
  %22 = load ptr, ptr %21, align 8
  store ptr %22, ptr %4, align 8
  %23 = load ptr, ptr %4, align 8
  %24 = getelementptr inbounds nuw %struct.SDL_HIDAPI_DeviceDriver, ptr %23, i32 0, i32 2
  %25 = load ptr, ptr %24, align 8
  %26 = load ptr, ptr %4, align 8
  call void %25(ptr noundef @SDL_HIDAPIDriverHintChanged, ptr noundef %26)
  call void @llvm.lifetime.end.p0(i64 8, ptr %4) #7
  br label %27

27:                                               ; preds = %18
  %28 = load i32, ptr %2, align 4
  %29 = add nsw i32 %28, 1
  store i32 %29, ptr %2, align 4
  br label %14, !llvm.loop !20

30:                                               ; preds = %14
  %31 = call zeroext i1 @SDL_AddHintCallback_REAL(ptr noundef @.str.13, ptr noundef @SDL_HIDAPIDriverHintChanged, ptr noundef null)
  %32 = call zeroext i1 @SDL_AddHintCallback_REAL(ptr noundef @.str.14, ptr noundef @SDL_HIDAPIDriverHintChanged, ptr noundef null)
  %33 = call i32 @SDL_hid_device_change_count_REAL()
  store i32 %33, ptr @SDL_HIDAPI_change_count, align 4
  call void @HIDAPI_UpdateDeviceList()
  call void @HIDAPI_UpdateDevices()
  store i8 1, ptr @initialized, align 1
  store i1 true, ptr %1, align 1
  store i32 1, ptr %3, align 4
  br label %34

34:                                               ; preds = %30, %11, %7
  call void @llvm.lifetime.end.p0(i64 4, ptr %2) #7
  %35 = load i1, ptr %1, align 1
  ret i1 %35
}