; Function Attrs: nounwind uwtable
define internal zeroext i1 @HIDAPI_JoystickInit() #0 {
  %.b7 = load i1, ptr @initialized, align 1
  br i1 %.b7, label %14, label %1

1:                                                ; preds = %0
  %2 = tail call i32 @SDL_hid_init_REAL() #9
  %3 = icmp slt i32 %2, 0
  br i1 %3, label %4, label %.preheader

4:                                                ; preds = %1
  %5 = tail call zeroext i1 (ptr, ...) @SDL_SetError_REAL(ptr noundef nonnull @.str.12) #9
  br label %14

.preheader:                                       ; preds = %1, %.preheader
  %indvars.iv = phi i64 [ %indvars.iv.next, %.preheader ], [ 0, %1 ]
  %6 = getelementptr inbounds nuw [22 x ptr], ptr @SDL_HIDAPI_drivers, i64 0, i64 %indvars.iv
  %7 = load ptr, ptr %6, align 8
  %8 = getelementptr inbounds nuw i8, ptr %7, i64 16
  %9 = load ptr, ptr %8, align 8
  tail call void %9(ptr noundef nonnull @SDL_HIDAPIDriverHintChanged, ptr noundef %7) #9
  %indvars.iv.next = add nuw nsw i64 %indvars.iv, 1
  %exitcond.not = icmp eq i64 %indvars.iv.next, 22
  br i1 %exitcond.not, label %10, label %.preheader, !llvm.loop !20

10:                                               ; preds = %.preheader
  %11 = tail call zeroext i1 @SDL_AddHintCallback_REAL(ptr noundef nonnull @.str.13, ptr noundef nonnull @SDL_HIDAPIDriverHintChanged, ptr noundef null) #9
  %12 = tail call zeroext i1 @SDL_AddHintCallback_REAL(ptr noundef nonnull @.str.14, ptr noundef nonnull @SDL_HIDAPIDriverHintChanged, ptr noundef null) #9
  %13 = tail call i32 @SDL_hid_device_change_count_REAL() #9
  store i32 %13, ptr @SDL_HIDAPI_change_count, align 4
  tail call fastcc void @HIDAPI_UpdateDeviceList()
  tail call void @HIDAPI_UpdateDevices()
  store i1 true, ptr @initialized, align 1
  br label %14

14:                                               ; preds = %0, %10, %4
  %.0 = phi i1 [ %5, %4 ], [ true, %10 ], [ true, %0 ]
  ret i1 %.0
}